; Function Attrs: nounwind ssp uwtable
define internal i32 @crypto_onetimeauth_poly1305_sse2_verify(ptr noundef %0, ptr noundef captures(address) %1, i64 noundef %2, ptr noundef readonly captures(none) %3) #0 {
  %5 = alloca %struct.poly1305_state_internal_t, align 64
  %6 = alloca [16 x i8], align 16
  call void @llvm.lifetime.start.p0(i64 16, ptr nonnull %6) #11
  call void @llvm.lifetime.start.p0(i64 168, ptr nonnull %5) #11
  call fastcc void @poly1305_init_ext(ptr noundef nonnull %5, ptr noundef readonly %3, i64 noundef %2)
  %7 = and i64 %2, -32
  %.not.i = icmp eq i64 %7, 0
  br i1 %.not.i, label %crypto_onetimeauth_poly1305_sse2.exit, label %8

8:                                                ; preds = %4
  call fastcc void @poly1305_blocks(ptr noundef nonnull %5, ptr noundef %1, i64 noundef %7)
  %9 = getelementptr i8, ptr %1, i64 %7
  %10 = and i64 %2, 31
  br label %crypto_onetimeauth_poly1305_sse2.exit

crypto_onetimeauth_poly1305_sse2.exit:            ; preds = %4, %8
  %.012.i = phi i64 [ %10, %8 ], [ %2, %4 ]
  %.0.i = phi ptr [ %9, %8 ], [ %1, %4 ]
  call fastcc void @poly1305_finish_ext(ptr noundef nonnull %5, ptr noundef %.0.i, i64 noundef %.012.i, ptr noundef nonnull %6)
  call void @llvm.lifetime.end.p0(i64 168, ptr nonnull %5) #11
  %11 = call i32 @crypto_verify_16(ptr noundef %0, ptr noundef nonnull %6) #11
  call void @llvm.lifetime.end.p0(i64 16, ptr nonnull %6) #11
  ret i32 %11
}